target datalayout = "e-m:e-p270:32:32-p271:32:32-p272:64:64-i64:64-i128:128-f80:128-n8:16:32:64-S128"
target triple = "x86_64-pc-linux-gnu"

%struct.AVFilterContext = type { ptr, ptr, ptr, ptr, ptr, i32, ptr, ptr, i32, ptr, ptr, i32, i32, ptr, ptr, ptr, ptr, i32, ptr, i32, i32 }
%struct.HWUploadContext = type { ptr, ptr, ptr, ptr, ptr }
%struct.AVHWFramesConstraints = type { ptr, ptr, i32, i32, i32, i32 }
%struct.AVFilterFormatsConfig = type { ptr, ptr, ptr, ptr, ptr }

; Function Attrs: nounwind uwtable
define internal i32 @hwupload_query_formats(ptr noundef %0, ptr noundef %1, ptr noundef %2) #0 {
  %4 = alloca i32, align 4
  %5 = alloca ptr, align 8
  %6 = alloca ptr, align 8
  %7 = alloca ptr, align 8
  %8 = alloca ptr, align 8
  %9 = alloca ptr, align 8
  %10 = alloca ptr, align 8
  %11 = alloca ptr, align 8
  %12 = alloca ptr, align 8
  %13 = alloca i32, align 4
  %14 = alloca i32, align 4
  %15 = alloca i32, align 4
  store ptr %0, ptr %5, align 8, !tbaa !4
  store ptr %1, ptr %6, align 8, !tbaa !30
  store ptr %2, ptr %7, align 8, !tbaa !30
  call void @llvm.lifetime.start.p0(i64 8, ptr %8) #5
  %16 = load ptr, ptr %5, align 8, !tbaa !4
  %17 = getelementptr inbounds nuw %struct.AVFilterContext, ptr %16, i32 0, i32 9
  %18 = load ptr, ptr %17, align 8, !tbaa !9
  store ptr %18, ptr %8, align 8, !tbaa !22
  call void @llvm.lifetime.start.p0(i64 8, ptr %9) #5
  store ptr null, ptr %9, align 8, !tbaa !32
  call void @llvm.lifetime.start.p0(i64 8, ptr %10) #5
  call void @llvm.lifetime.start.p0(i64 8, ptr %11) #5
  call void @llvm.lifetime.start.p0(i64 8, ptr %12) #5
  store ptr null, ptr %12, align 8, !tbaa !34
  call void @llvm.lifetime.start.p0(i64 4, ptr %13) #5
  call void @llvm.lifetime.start.p0(i64 4, ptr %14) #5
  %19 = load ptr, ptr %8, align 8, !tbaa !22
  %20 = getelementptr inbounds nuw %struct.HWUploadContext, ptr %19, i32 0, i32 1
  %21 = load ptr, ptr %20, align 8, !tbaa !29
  %22 = call ptr @av_hwdevice_get_hwframe_constraints(ptr noundef %21, ptr noundef null)
  store ptr %22, ptr %9, align 8, !tbaa !32
  %23 = load ptr, ptr %9, align 8, !tbaa !32
  %24 = icmp ne ptr %23, null
  br i1 %24, label %26, label %25

25:                                               ; preds = %3
  store i32 -22, ptr %13, align 4, !tbaa !28
  br label %84

26:                                               ; preds = %3
  %27 = load ptr, ptr %9, align 8, !tbaa !32
  %28 = getelementptr inbounds nuw %struct.AVHWFramesConstraints, ptr %27, i32 0, i32 1
  %29 = load ptr, ptr %28, align 8, !tbaa !36
  store ptr %29, ptr %10, align 8, !tbaa !38
  %30 = load ptr, ptr %9, align 8, !tbaa !32
  %31 = getelementptr inbounds nuw %struct.AVHWFramesConstraints, ptr %30, i32 0, i32 0
  %32 = load ptr, ptr %31, align 8, !tbaa !39
  store ptr %32, ptr %11, align 8, !tbaa !38
  %33 = load ptr, ptr %11, align 8, !tbaa !38
  %34 = call ptr @ff_make_format_list(ptr noundef %33)
  store ptr %34, ptr %12, align 8, !tbaa !34
  %35 = load ptr, ptr %12, align 8, !tbaa !34
  %36 = icmp ne ptr %35, null
  br i1 %36, label %38, label %37

37:                                               ; preds = %26
  store i32 -12, ptr %13, align 4, !tbaa !28
  br label %84

38:                                               ; preds = %26
  %39 = load ptr, ptr %10, align 8, !tbaa !38
  %40 = icmp ne ptr %39, null
  br i1 %40, label %41, label %65

41:                                               ; preds = %38
  store i32 0, ptr %14, align 4, !tbaa !28
  br label %42

42:                                               ; preds = %61, %41
  %43 = load ptr, ptr %10, align 8, !tbaa !38
  %44 = load i32, ptr %14, align 4, !tbaa !28
  %45 = sext i32 %44 to i64
  %46 = getelementptr inbounds i32, ptr %43, i64 %45
  %47 = load i32, ptr %46, align 4, !tbaa !28
  %48 = icmp ne i32 %47, -1
  br i1 %48, label %49, label %64

49:                                               ; preds = %42
  %50 = load ptr, ptr %10, align 8, !tbaa !38
  %51 = load i32, ptr %14, align 4, !tbaa !28
  %52 = sext i32 %51 to i64
  %53 = getelementptr inbounds i32, ptr %50, i64 %52
  %54 = load i32, ptr %53, align 4, !tbaa !28
  %55 = sext i32 %54 to i64
  %56 = call i32 @ff_add_format(ptr noundef %12, i64 noundef %55)
  store i32 %56, ptr %13, align 4, !tbaa !28
  %57 = load i32, ptr %13, align 4, !tbaa !28
  %58 = icmp slt i32 %57, 0
  br i1 %58, label %59, label %60

59:                                               ; preds = %49
  br label %84

60:                                               ; preds = %49
  br label %61

61:                                               ; preds = %60
  %62 = load i32, ptr %14, align 4, !tbaa !28
  %63 = add nsw i32 %62, 1
  store i32 %63, ptr %14, align 4, !tbaa !28
  br label %42, !llvm.loop !40

64:                                               ; preds = %42
  br label %65

65:                                               ; preds = %64, %38
  %66 = load ptr, ptr %12, align 8, !tbaa !34
  %67 = load ptr, ptr %6, align 8, !tbaa !30
  %68 = getelementptr inbounds ptr, ptr %67, i64 0
  %69 = load ptr, ptr %68, align 8, !tbaa !42
  %70 = getelementptr inbounds nuw %struct.AVFilterFormatsConfig, ptr %69, i32 0, i32 0
  %71 = call i32 @ff_formats_ref(ptr noundef %66, ptr noundef %70)
  store i32 %71, ptr %13, align 4, !tbaa !28
  %72 = icmp slt i32 %71, 0
  br i1 %72, label %82, label %73

73:                                               ; preds = %65
  %74 = load ptr, ptr %11, align 8, !tbaa !38
  %75 = call ptr @ff_make_format_list(ptr noundef %74)
  %76 = load ptr, ptr %7, align 8, !tbaa !30
  %77 = getelementptr inbounds ptr, ptr %76, i64 0
  %78 = load ptr, ptr %77, align 8, !tbaa !42
  %79 = getelementptr inbounds nuw %struct.AVFilterFormatsConfig, ptr %78, i32 0, i32 0
  %80 = call i32 @ff_formats_ref(ptr noundef %75, ptr noundef %79)
  store i32 %80, ptr %13, align 4, !tbaa !28
  %81 = icmp slt i32 %80, 0
  br i1 %81, label %82, label %83

82:                                               ; preds = %73, %65
  br label %84

83:                                               ; preds = %73
  call void @av_hwframe_constraints_free(ptr noundef %9)
  store i32 0, ptr %4, align 4
  store i32 1, ptr %15, align 4
  br label %86

84:                                               ; preds = %82, %59, %37, %25
  call void @av_hwframe_constraints_free(ptr noundef %9)
  %85 = load i32, ptr %13, align 4, !tbaa !28
  store i32 %85, ptr %4, align 4
  store i32 1, ptr %15, align 4
  br label %86

86:                                               ; preds = %84, %83
  call void @llvm.lifetime.end.p0(i64 4, ptr %14) #5
  call void @llvm.lifetime.end.p0(i64 4, ptr %13) #5
  call void @llvm.lifetime.end.p0(i64 8, ptr %12) #5
  call void @llvm.lifetime.end.p0(i64 8, ptr %11) #5
  call void @llvm.lifetime.end.p0(i64 8, ptr %10) #5
  call void @llvm.lifetime.end.p0(i64 8, ptr %9) #5
  call void @llvm.lifetime.end.p0(i64 8, ptr %8) #5
  %87 = load i32, ptr %4, align 4
  ret i32 %87
}