; Function Attrs: nounwind uwtable
define internal range(i32 -2147483648, 1) i32 @hwupload_query_formats(ptr noundef readonly captures(none) %0, ptr noundef readonly captures(none) %1, ptr noundef readonly captures(none) %2) #0 {
  %4 = alloca ptr, align 8
  %5 = alloca ptr, align 8
  %6 = getelementptr inbounds nuw i8, ptr %0, i64 72
  %7 = load ptr, ptr %6, align 8, !tbaa !4
  call void @llvm.lifetime.start.p0(i64 8, ptr nonnull %4) #5
  call void @llvm.lifetime.start.p0(i64 8, ptr nonnull %5) #5
  store ptr null, ptr %5, align 8, !tbaa !25
  %8 = getelementptr inbounds nuw i8, ptr %7, i64 8
  %9 = load ptr, ptr %8, align 8, !tbaa !24
  %10 = tail call ptr @av_hwdevice_get_hwframe_constraints(ptr noundef %9, ptr noundef null) #5
  store ptr %10, ptr %4, align 8, !tbaa !27
  %.not = icmp eq ptr %10, null
  br i1 %.not, label %.loopexit25, label %11

11:                                               ; preds = %3
  %12 = getelementptr inbounds nuw i8, ptr %10, i64 8
  %13 = load ptr, ptr %12, align 8, !tbaa !29
  %14 = load ptr, ptr %10, align 8, !tbaa !31
  %15 = tail call ptr @ff_make_format_list(ptr noundef %14) #5
  store ptr %15, ptr %5, align 8, !tbaa !25
  %.not22 = icmp eq ptr %15, null
  br i1 %.not22, label %.loopexit25, label %16

16:                                               ; preds = %11
  %.not23 = icmp eq ptr %13, null
  br i1 %.not23, label %.loopexit, label %.preheader

.preheader:                                       ; preds = %16
  %17 = load i32, ptr %13, align 4, !tbaa !32
  %.not2426 = icmp eq i32 %17, -1
  br i1 %.not2426, label %.loopexit, label %.lr.ph

18:                                               ; preds = %.lr.ph
  %indvars.iv.next = add nuw nsw i64 %indvars.iv, 1
  %19 = getelementptr inbounds nuw i32, ptr %13, i64 %indvars.iv.next
  %20 = load i32, ptr %19, align 4, !tbaa !32
  %.not24 = icmp eq i32 %20, -1
  br i1 %.not24, label %.loopexit.loopexit, label %.lr.ph, !llvm.loop !33

.lr.ph:                                           ; preds = %.preheader, %18
  %indvars.iv = phi i64 [ %indvars.iv.next, %18 ], [ 0, %.preheader ]
  %21 = phi i32 [ %20, %18 ], [ %17, %.preheader ]
  %22 = sext i32 %21 to i64
  %23 = call i32 @ff_add_format(ptr noundef nonnull %5, i64 noundef %22) #5
  %24 = icmp slt i32 %23, 0
  br i1 %24, label %.loopexit25, label %18

.loopexit.loopexit:                               ; preds = %18
  %.pre = load ptr, ptr %5, align 8, !tbaa !25
  br label %.loopexit

.loopexit:                                        ; preds = %.loopexit.loopexit, %.preheader, %16
  %25 = phi ptr [ %.pre, %.loopexit.loopexit ], [ %15, %.preheader ], [ %15, %16 ]
  %26 = load ptr, ptr %1, align 8, !tbaa !35
  %27 = call i32 @ff_formats_ref(ptr noundef %25, ptr noundef %26) #5
  %28 = icmp slt i32 %27, 0
  br i1 %28, label %.loopexit25, label %29

29:                                               ; preds = %.loopexit
  %30 = call ptr @ff_make_format_list(ptr noundef %14) #5
  %31 = load ptr, ptr %2, align 8, !tbaa !35
  %32 = call i32 @ff_formats_ref(ptr noundef %30, ptr noundef %31) #5
  %spec.select = call i32 @llvm.smin.i32(i32 %32, i32 0)
  br label %.loopexit25

.loopexit25:                                      ; preds = %.lr.ph, %29, %.loopexit, %3, %11
  %.015 = phi i32 [ %27, %.loopexit ], [ -22, %3 ], [ -12, %11 ], [ %spec.select, %29 ], [ %23, %.lr.ph ]
  call void @av_hwframe_constraints_free(ptr noundef nonnull %4) #5
  call void @llvm.lifetime.end.p0(i64 8, ptr nonnull %5) #5
  call void @llvm.lifetime.end.p0(i64 8, ptr nonnull %4) #5
  ret i32 %.015
}